target datalayout = "e-m:e-p270:32:32-p271:32:32-p272:64:64-i64:64-i128:128-f80:128-n8:16:32:64-S128"
target triple = "x86_64-pc-linux-gnu"

@H5S_init_g = external global i8, align 1
@H5_libterm_g = external global i8, align 1
@H5S_hyper_op_gen_g = internal global i64 1, align 8
@.str = private unnamed_addr constant [102 x i8] c"generated/home/dtcxzyw/WorkSpace/Projects/compilers/llvm-opt-benchmark/bench/hdf5/hdf5/src/H5Shyper.c\00", align 1
@H5E_DATASPACE_g = external global i64, align 8
@H5E_CANTCOPY_g = external global i64, align 8
@.str.105 = private unnamed_addr constant [31 x i8] c"can't copy hyperslab span tree\00", align 1
@__func__.H5S__hyper_copy_span = private unnamed_addr constant [21 x i8] c"H5S__hyper_copy_span\00", align 1

; Function Attrs: nounwind uwtable
define i64 @H5S__hyper_get_op_gen() #0 {
  %1 = load i8, ptr @H5S_init_g, align 1, !tbaa !8, !range !12, !noundef !13
  %2 = trunc i8 %1 to i1
  br i1 %2, label %7, label %3

3:                                                ; preds = %0
  %4 = load i8, ptr @H5_libterm_g, align 1, !tbaa !8, !range !12, !noundef !13
  %5 = trunc i8 %4 to i1
  %6 = xor i1 %5, true
  br label %7

7:                                                ; preds = %3, %0
  %8 = phi i1 [ true, %0 ], [ %6, %3 ]
  %9 = xor i1 %8, true
  %10 = xor i1 %9, true
  %11 = zext i1 %10 to i32
  %12 = sext i32 %11 to i64
  %13 = call i64 @llvm.expect.i64(i64 %12, i64 1)
  %14 = icmp ne i64 %13, 0
  br i1 %14, label %15, label %16

15:                                               ; preds = %7
  br label %16

16:                                               ; preds = %15, %7
  %17 = load i64, ptr @H5S_hyper_op_gen_g, align 8, !tbaa !15
  %18 = add i64 %17, 1
  store i64 %18, ptr @H5S_hyper_op_gen_g, align 8, !tbaa !15
  ret i64 %17
}

; Function Attrs: nounwind uwtable
define internal ptr @H5S__hyper_copy_span(ptr noundef %0, i32 noundef %1) #0 {
  %3 = alloca ptr, align 8
  %4 = alloca i32, align 4
  %5 = alloca i64, align 8
  %6 = alloca ptr, align 8
  %7 = alloca i8, align 1
  store ptr %0, ptr %3, align 8, !tbaa !107
  store i32 %1, ptr %4, align 4, !tbaa !10
  call void @llvm.lifetime.start.p0(i64 8, ptr %5) #7
  call void @llvm.lifetime.start.p0(i64 8, ptr %6) #7
  store ptr null, ptr %6, align 8, !tbaa !107
  call void @llvm.lifetime.start.p0(i64 1, ptr %7) #7
  store i8 0, ptr %7, align 1, !tbaa !8
  %8 = load i8, ptr @H5S_init_g, align 1, !tbaa !8, !range !12, !noundef !13
  %9 = trunc i8 %8 to i1
  br i1 %9, label %14, label %10

10:                                               ; preds = %2
  %11 = load i8, ptr @H5_libterm_g, align 1, !tbaa !8, !range !12, !noundef !13
  %12 = trunc i8 %11 to i1
  %13 = xor i1 %12, true
  br label %14

14:                                               ; preds = %10, %2
  %15 = phi i1 [ true, %2 ], [ %13, %10 ]
  %16 = xor i1 %15, true
  %17 = xor i1 %16, true
  %18 = zext i1 %17 to i32
  %19 = sext i32 %18 to i64
  %20 = call i64 @llvm.expect.i64(i64 %19, i64 1)
  %21 = icmp ne i64 %20, 0
  br i1 %21, label %22, label %50

22:                                               ; preds = %14
  %23 = call i64 @H5S__hyper_get_op_gen()
  store i64 %23, ptr %5, align 8, !tbaa !15
  %24 = load ptr, ptr %3, align 8, !tbaa !107
  %25 = load i32, ptr %4, align 4, !tbaa !10
  %26 = load i64, ptr %5, align 8, !tbaa !15
  %27 = call ptr @H5S__hyper_copy_span_helper(ptr noundef %24, i32 noundef %25, i32 noundef 0, i64 noundef %26)
  store ptr %27, ptr %6, align 8, !tbaa !107
  %28 = icmp eq ptr null, %27
  br i1 %28, label %29, label %48

29:                                               ; preds = %22
  br label %30

30:                                               ; preds = %29
  br label %31

31:                                               ; preds = %30
  br label %32

32:                                               ; preds = %31
  %33 = load i64, ptr @H5E_DATASPACE_g, align 8, !tbaa !15
  %34 = load i64, ptr @H5E_CANTCOPY_g, align 8, !tbaa !15
  %35 = call i32 (ptr, ptr, i32, i64, i64, ptr, ...) @H5E_printf_stack(ptr noundef @.str, ptr noundef @__func__.H5S__hyper_copy_span, i32 noundef 2977, i64 noundef %33, i64 noundef %34, ptr noundef @.str.105)
  br label %36

36:                                               ; preds = %32
  br label %37

37:                                               ; preds = %36
  store i8 1, ptr %7, align 1, !tbaa !8
  %38 = load i8, ptr %7, align 1, !tbaa !8, !range !12, !noundef !13
  %39 = trunc i8 %38 to i1
  %40 = zext i1 %39 to i8
  store i8 %40, ptr %7, align 1, !tbaa !8
  br label %41

41:                                               ; preds = %37
  br label %42

42:                                               ; preds = %41
  br label %43

43:                                               ; preds = %42
  store ptr null, ptr %6, align 8, !tbaa !107
  br label %49

44:                                               ; No predecessors!
  br label %45

45:                                               ; preds = %44
  br label %46

46:                                               ; preds = %45
  br label %47

47:                                               ; preds = %46
  br label %48

48:                                               ; preds = %47, %22
  br label %49

49:                                               ; preds = %48, %43
  br label %50

50:                                               ; preds = %49, %14
  %51 = load ptr, ptr %6, align 8, !tbaa !107
  call void @llvm.lifetime.end.p0(i64 1, ptr %7) #7
  call void @llvm.lifetime.end.p0(i64 8, ptr %6) #7
  call void @llvm.lifetime.end.p0(i64 8, ptr %5) #7
  ret ptr %51
}