; Function Attrs: nounwind uwtable
define internal fastcc ptr @H5S__hyper_copy_span(ptr noundef captures(none) %0, i32 noundef %1) unnamed_addr #0 {
  %3 = load i8, ptr @H5S_init_g, align 1, !tbaa !3, !range !7, !noundef !8
  %4 = trunc nuw i8 %3 to i1
  %5 = load i8, ptr @H5_libterm_g, align 1, !range !7
  %6 = trunc nuw i8 %5 to i1
  %7 = xor i1 %6, true
  %8 = select i1 %4, i1 true, i1 %7
  br i1 %8, label %9, label %18, !prof !9

9:                                                ; preds = %2
  %10 = load i64, ptr @H5S_hyper_op_gen_g, align 8, !tbaa !11
  %11 = add i64 %10, 1
  store i64 %11, ptr @H5S_hyper_op_gen_g, align 8, !tbaa !11
  %12 = tail call fastcc ptr @H5S__hyper_copy_span_helper(ptr noundef %0, i32 noundef %1, i32 noundef 0, i64 noundef %10)
  %13 = icmp eq ptr %12, null
  br i1 %13, label %14, label %18

14:                                               ; preds = %9
  %15 = load i64, ptr @H5E_DATASPACE_g, align 8, !tbaa !11
  %16 = load i64, ptr @H5E_CANTCOPY_g, align 8, !tbaa !11
  %17 = tail call i32 (ptr, ptr, i32, i64, i64, ptr, ...) @H5E_printf_stack(ptr noundef nonnull @.str, ptr noundef nonnull @__func__.H5S__hyper_copy_span, i32 noundef 2977, i64 noundef %15, i64 noundef %16, ptr noundef nonnull @.str.105) #14
  br label %18

18:                                               ; preds = %14, %9, %2
  %.0 = phi ptr [ null, %14 ], [ %12, %9 ], [ null, %2 ]
  ret ptr %.0
}